; ModuleID = '21/1674.c'
source_filename = "21/1674.c"
target datalayout = "e-m:e-p270:32:32-p271:32:32-p272:64:64-i64:64-f80:128-n8:16:32:64-S128"
target triple = "x86_64-pc-linux-gnu"

@.str = private unnamed_addr constant [3 x i8] c"%d\00", align 1
@.str.1 = private unnamed_addr constant [6 x i8] c"%d,%d\00", align 1

; Function Attrs: noinline nounwind uwtable
define dso_local void @main() #0 {
  %1 = alloca i32, align 4
  %2 = alloca i32, align 4
  %3 = alloca i32, align 4
  %4 = alloca [301 x i32], align 16
  %5 = alloca i32, align 4
  %6 = alloca i32, align 4
  %7 = alloca i32, align 4
  %8 = call i32 (i8*, ...) @__isoc99_scanf(i8* getelementptr inbounds ([3 x i8], [3 x i8]* @.str, i64 0, i64 0), i32* %2)
  store i32 0, i32* %3, align 4
  br label %9

9:                                                ; preds = %18, %0
  %10 = load i32, i32* %3, align 4
  %11 = load i32, i32* %2, align 4
  %12 = icmp slt i32 %10, %11
  br i1 %12, label %13, label %21

13:                                               ; preds = %9
  %14 = load i32, i32* %3, align 4
  %15 = sext i32 %14 to i64
  %16 = getelementptr inbounds [301 x i32], [301 x i32]* %4, i64 0, i64 %15
  %17 = call i32 (i8*, ...) @__isoc99_scanf(i8* getelementptr inbounds ([3 x i8], [3 x i8]* @.str, i64 0, i64 0), i32* %16)
  br label %18

18:                                               ; preds = %13
  %19 = load i32, i32* %3, align 4
  %20 = add nsw i32 %19, 1
  store i32 %20, i32* %3, align 4
  br label %9

21:                                               ; preds = %9
  store i32 0, i32* %5, align 4
  %22 = getelementptr inbounds [301 x i32], [301 x i32]* %4, i64 0, i64 0
  %23 = load i32, i32* %22, align 16
  store i32 %23, i32* %6, align 4
  %24 = getelementptr inbounds [301 x i32], [301 x i32]* %4, i64 0, i64 0
  %25 = load i32, i32* %24, align 16
  store i32 %25, i32* %7, align 4
  store i32 0, i32* %3, align 4
  br label %26

26:                                               ; preds = %61, %21
  %27 = load i32, i32* %3, align 4
  %28 = load i32, i32* %2, align 4
  %29 = icmp slt i32 %27, %28
  br i1 %29, label %30, label %64

30:                                               ; preds = %26
  %31 = load i32, i32* %3, align 4
  %32 = sext i32 %31 to i64
  %33 = getelementptr inbounds [301 x i32], [301 x i32]* %4, i64 0, i64 %32
  %34 = load i32, i32* %33, align 4
  %35 = load i32, i32* %5, align 4
  %36 = add nsw i32 %35, %34
  store i32 %36, i32* %5, align 4
  %37 = load i32, i32* %3, align 4
  %38 = sext i32 %37 to i64
  %39 = getelementptr inbounds [301 x i32], [301 x i32]* %4, i64 0, i64 %38
  %40 = load i32, i32* %39, align 4
  %41 = load i32, i32* %6, align 4
  %42 = icmp sgt i32 %40, %41
  br i1 %42, label %43, label %48

43:                                               ; preds = %30
  %44 = load i32, i32* %3, align 4
  %45 = sext i32 %44 to i64
  %46 = getelementptr inbounds [301 x i32], [301 x i32]* %4, i64 0, i64 %45
  %47 = load i32, i32* %46, align 4
  store i32 %47, i32* %6, align 4
  br label %48

48:                                               ; preds = %43, %30
  %49 = load i32, i32* %3, align 4
  %50 = sext i32 %49 to i64
  %51 = getelementptr inbounds [301 x i32], [301 x i32]* %4, i64 0, i64 %50
  %52 = load i32, i32* %51, align 4
  %53 = load i32, i32* %7, align 4
  %54 = icmp slt i32 %52, %53
  br i1 %54, label %55, label %60

55:                                               ; preds = %48
  %56 = load i32, i32* %3, align 4
  %57 = sext i32 %56 to i64
  %58 = getelementptr inbounds [301 x i32], [301 x i32]* %4, i64 0, i64 %57
  %59 = load i32, i32* %58, align 4
  store i32 %59, i32* %7, align 4
  br label %60

60:                                               ; preds = %55, %48
  br label %61

61:                                               ; preds = %60
  %62 = load i32, i32* %3, align 4
  %63 = add nsw i32 %62, 1
  store i32 %63, i32* %3, align 4
  br label %26

64:                                               ; preds = %26
  %65 = load i32, i32* %2, align 4
  %66 = load i32, i32* %6, align 4
  %67 = mul nsw i32 %66, %65
  store i32 %67, i32* %6, align 4
  %68 = load i32, i32* %2, align 4
  %69 = load i32, i32* %7, align 4
  %70 = mul nsw i32 %69, %68
  store i32 %70, i32* %7, align 4
  %71 = load i32, i32* %6, align 4
  %72 = load i32, i32* %5, align 4
  %73 = sub nsw i32 %71, %72
  %74 = load i32, i32* %5, align 4
  %75 = load i32, i32* %7, align 4
  %76 = sub nsw i32 %74, %75
  %77 = icmp sgt i32 %73, %76
  br i1 %77, label %78, label %83

78:                                               ; preds = %64
  %79 = load i32, i32* %6, align 4
  %80 = load i32, i32* %2, align 4
  %81 = sdiv i32 %79, %80
  %82 = call i32 (i8*, ...) @printf(i8* getelementptr inbounds ([3 x i8], [3 x i8]* @.str, i64 0, i64 0), i32 %81)
  br label %83

83:                                               ; preds = %78, %64
  %84 = load i32, i32* %6, align 4
  %85 = load i32, i32* %5, align 4
  %86 = sub nsw i32 %84, %85
  %87 = load i32, i32* %5, align 4
  %88 = load i32, i32* %7, align 4
  %89 = sub nsw i32 %87, %88
  %90 = icmp slt i32 %86, %89
  br i1 %90, label %91, label %96

91:                                               ; preds = %83
  %92 = load i32, i32* %7, align 4
  %93 = load i32, i32* %2, align 4
  %94 = sdiv i32 %92, %93
  %95 = call i32 (i8*, ...) @printf(i8* getelementptr inbounds ([3 x i8], [3 x i8]* @.str, i64 0, i64 0), i32 %94)
  br label %96

96:                                               ; preds = %91, %83
  %97 = load i32, i32* %6, align 4
  %98 = load i32, i32* %5, align 4
  %99 = sub nsw i32 %97, %98
  %100 = load i32, i32* %5, align 4
  %101 = load i32, i32* %7, align 4
  %102 = sub nsw i32 %100, %101
  %103 = icmp eq i32 %99, %102
  br i1 %103, label %104, label %112

104:                                              ; preds = %96
  %105 = load i32, i32* %7, align 4
  %106 = load i32, i32* %2, align 4
  %107 = sdiv i32 %105, %106
  %108 = load i32, i32* %6, align 4
  %109 = load i32, i32* %2, align 4
  %110 = sdiv i32 %108, %109
  %111 = call i32 (i8*, ...) @printf(i8* getelementptr inbounds ([6 x i8], [6 x i8]* @.str.1, i64 0, i64 0), i32 %107, i32 %110)
  br label %112

112:                                              ; preds = %104, %96
  ret void
}

declare dso_local i32 @__isoc99_scanf(i8*, ...) #1

declare dso_local i32 @printf(i8*, ...) #1


!llvm.module.flags = !{!0}
!llvm.ident = !{!1}

!0 = !{i32 1, !"wchar_size", i32 4}
!1 = !{!"clang version 10.0.0-4ubuntu1 "}
